
eindopdracht.elf:     file format elf32-avr

Sections:
Idx Name          Size      VMA       LMA       File off  Algn
  0 .data         00000006  00800100  00000440  000004d4  2**0
                  CONTENTS, ALLOC, LOAD, DATA
  1 .text         00000440  00000000  00000000  00000094  2**1
                  CONTENTS, ALLOC, LOAD, READONLY, CODE
  2 .bss          00000002  00800106  00800106  000004da  2**0
                  ALLOC
  3 .comment      00000030  00000000  00000000  000004da  2**0
                  CONTENTS, READONLY
  4 .note.gnu.avr.deviceinfo 0000003c  00000000  00000000  0000050c  2**2
                  CONTENTS, READONLY
  5 .debug_aranges 00000130  00000000  00000000  00000548  2**0
                  CONTENTS, READONLY, DEBUGGING
  6 .debug_info   0000146f  00000000  00000000  00000678  2**0
                  CONTENTS, READONLY, DEBUGGING
  7 .debug_abbrev 00000bcc  00000000  00000000  00001ae7  2**0
                  CONTENTS, READONLY, DEBUGGING
  8 .debug_line   00000a64  00000000  00000000  000026b3  2**0
                  CONTENTS, READONLY, DEBUGGING
  9 .debug_frame  00000278  00000000  00000000  00003118  2**2
                  CONTENTS, READONLY, DEBUGGING
 10 .debug_str    00000637  00000000  00000000  00003390  2**0
                  CONTENTS, READONLY, DEBUGGING
 11 .debug_loc    000008bc  00000000  00000000  000039c7  2**0
                  CONTENTS, READONLY, DEBUGGING
 12 .debug_ranges 000000e0  00000000  00000000  00004283  2**0
                  CONTENTS, READONLY, DEBUGGING

Disassembly of section .text:

00000000 <__vectors>:
   0:	45 c0       	rjmp	.+138    	; 0x8c <__ctors_end>
   2:	00 00       	nop
   4:	60 c0       	rjmp	.+192    	; 0xc6 <__bad_interrupt>
   6:	00 00       	nop
   8:	5e c0       	rjmp	.+188    	; 0xc6 <__bad_interrupt>
   a:	00 00       	nop
   c:	5c c0       	rjmp	.+184    	; 0xc6 <__bad_interrupt>
   e:	00 00       	nop
  10:	5a c0       	rjmp	.+180    	; 0xc6 <__bad_interrupt>
  12:	00 00       	nop
  14:	58 c0       	rjmp	.+176    	; 0xc6 <__bad_interrupt>
  16:	00 00       	nop
  18:	56 c0       	rjmp	.+172    	; 0xc6 <__bad_interrupt>
  1a:	00 00       	nop
  1c:	54 c0       	rjmp	.+168    	; 0xc6 <__bad_interrupt>
  1e:	00 00       	nop
  20:	52 c0       	rjmp	.+164    	; 0xc6 <__bad_interrupt>
  22:	00 00       	nop
  24:	50 c0       	rjmp	.+160    	; 0xc6 <__bad_interrupt>
  26:	00 00       	nop
  28:	4e c0       	rjmp	.+156    	; 0xc6 <__bad_interrupt>
  2a:	00 00       	nop
  2c:	4c c0       	rjmp	.+152    	; 0xc6 <__bad_interrupt>
  2e:	00 00       	nop
  30:	c9 c0       	rjmp	.+402    	; 0x1c4 <__vector_12>
  32:	00 00       	nop
  34:	48 c0       	rjmp	.+144    	; 0xc6 <__bad_interrupt>
  36:	00 00       	nop
  38:	46 c0       	rjmp	.+140    	; 0xc6 <__bad_interrupt>
  3a:	00 00       	nop
  3c:	44 c0       	rjmp	.+136    	; 0xc6 <__bad_interrupt>
  3e:	00 00       	nop
  40:	42 c0       	rjmp	.+132    	; 0xc6 <__bad_interrupt>
  42:	00 00       	nop
  44:	40 c0       	rjmp	.+128    	; 0xc6 <__bad_interrupt>
  46:	00 00       	nop
  48:	3e c0       	rjmp	.+124    	; 0xc6 <__bad_interrupt>
  4a:	00 00       	nop
  4c:	3c c0       	rjmp	.+120    	; 0xc6 <__bad_interrupt>
  4e:	00 00       	nop
  50:	3a c0       	rjmp	.+116    	; 0xc6 <__bad_interrupt>
  52:	00 00       	nop
  54:	38 c0       	rjmp	.+112    	; 0xc6 <__bad_interrupt>
  56:	00 00       	nop
  58:	36 c0       	rjmp	.+108    	; 0xc6 <__bad_interrupt>
  5a:	00 00       	nop
  5c:	34 c0       	rjmp	.+104    	; 0xc6 <__bad_interrupt>
  5e:	00 00       	nop
  60:	32 c0       	rjmp	.+100    	; 0xc6 <__bad_interrupt>
  62:	00 00       	nop
  64:	30 c0       	rjmp	.+96     	; 0xc6 <__bad_interrupt>
  66:	00 00       	nop
  68:	2e c0       	rjmp	.+92     	; 0xc6 <__bad_interrupt>
  6a:	00 00       	nop
  6c:	2c c0       	rjmp	.+88     	; 0xc6 <__bad_interrupt>
  6e:	00 00       	nop
  70:	2a c0       	rjmp	.+84     	; 0xc6 <__bad_interrupt>
  72:	00 00       	nop
  74:	28 c0       	rjmp	.+80     	; 0xc6 <__bad_interrupt>
  76:	00 00       	nop
  78:	26 c0       	rjmp	.+76     	; 0xc6 <__bad_interrupt>
  7a:	00 00       	nop
  7c:	24 c0       	rjmp	.+72     	; 0xc6 <__bad_interrupt>
  7e:	00 00       	nop
  80:	22 c0       	rjmp	.+68     	; 0xc6 <__bad_interrupt>
  82:	00 00       	nop
  84:	20 c0       	rjmp	.+64     	; 0xc6 <__bad_interrupt>
  86:	00 00       	nop
  88:	1e c0       	rjmp	.+60     	; 0xc6 <__bad_interrupt>
	...

0000008c <__ctors_end>:
  8c:	11 24       	eor	r1, r1
  8e:	1f be       	out	0x3f, r1	; 63
  90:	cf ef       	ldi	r28, 0xFF	; 255
  92:	d0 e1       	ldi	r29, 0x10	; 16
  94:	de bf       	out	0x3e, r29	; 62
  96:	cd bf       	out	0x3d, r28	; 61

00000098 <__do_copy_data>:
  98:	11 e0       	ldi	r17, 0x01	; 1
  9a:	a0 e0       	ldi	r26, 0x00	; 0
  9c:	b1 e0       	ldi	r27, 0x01	; 1
  9e:	e0 e4       	ldi	r30, 0x40	; 64
  a0:	f4 e0       	ldi	r31, 0x04	; 4
  a2:	00 e0       	ldi	r16, 0x00	; 0
  a4:	0b bf       	out	0x3b, r16	; 59
  a6:	02 c0       	rjmp	.+4      	; 0xac <__do_copy_data+0x14>
  a8:	07 90       	elpm	r0, Z+
  aa:	0d 92       	st	X+, r0
  ac:	a6 30       	cpi	r26, 0x06	; 6
  ae:	b1 07       	cpc	r27, r17
  b0:	d9 f7       	brne	.-10     	; 0xa8 <__do_copy_data+0x10>

000000b2 <__do_clear_bss>:
  b2:	21 e0       	ldi	r18, 0x01	; 1
  b4:	a6 e0       	ldi	r26, 0x06	; 6
  b6:	b1 e0       	ldi	r27, 0x01	; 1
  b8:	01 c0       	rjmp	.+2      	; 0xbc <.do_clear_bss_start>

000000ba <.do_clear_bss_loop>:
  ba:	1d 92       	st	X+, r1

000000bc <.do_clear_bss_start>:
  bc:	a8 30       	cpi	r26, 0x08	; 8
  be:	b2 07       	cpc	r27, r18
  c0:	e1 f7       	brne	.-8      	; 0xba <.do_clear_bss_loop>
  c2:	b7 d0       	rcall	.+366    	; 0x232 <main>
  c4:	bb c1       	rjmp	.+886    	; 0x43c <_exit>

000000c6 <__bad_interrupt>:
  c6:	9c cf       	rjmp	.-200    	; 0x0 <__vectors>

000000c8 <adc_init>:
#include <avr/io.h>
#include "adc.h"


void adc_init(){
		ADMUX = 0b11000010;			// AREF=2.56V, result left adjusted, channel1 at pin PF1
  c8:	82 ec       	ldi	r24, 0xC2	; 194
  ca:	87 b9       	out	0x07, r24	; 7
		ADCSRA = 0b11100110;		// ADC-enable, no interrupt, start, free running, division by 64
  cc:	86 ee       	ldi	r24, 0xE6	; 230
  ce:	86 b9       	out	0x06, r24	; 6
  d0:	08 95       	ret

000000d2 <writeInitCommand_strobe_e>:
{
	char data_out[16];
	memset(data_out, 0, sizeof(data_out[0]) * 16);
	sprintf(data_out, "%u", data);
	lcd_write_string(data_out);
}
  d2:	80 7f       	andi	r24, 0xF0	; 240
  d4:	88 60       	ori	r24, 0x08	; 8
  d6:	85 bb       	out	0x15, r24	; 21
  d8:	8f ec       	ldi	r24, 0xCF	; 207
  da:	97 e0       	ldi	r25, 0x07	; 7
  dc:	01 97       	sbiw	r24, 0x01	; 1
  de:	f1 f7       	brne	.-4      	; 0xdc <writeInitCommand_strobe_e+0xa>
  e0:	00 c0       	rjmp	.+0      	; 0xe2 <writeInitCommand_strobe_e+0x10>
  e2:	00 00       	nop
  e4:	85 b3       	in	r24, 0x15	; 21
  e6:	87 7f       	andi	r24, 0xF7	; 247
  e8:	85 bb       	out	0x15, r24	; 21
  ea:	8f ec       	ldi	r24, 0xCF	; 207
  ec:	97 e0       	ldi	r25, 0x07	; 7
  ee:	01 97       	sbiw	r24, 0x01	; 1
  f0:	f1 f7       	brne	.-4      	; 0xee <writeInitCommand_strobe_e+0x1c>
  f2:	00 c0       	rjmp	.+0      	; 0xf4 <writeInitCommand_strobe_e+0x22>
  f4:	00 00       	nop
  f6:	08 95       	ret

000000f8 <write2NibbleCommand_strobe_e>:
  f8:	98 2f       	mov	r25, r24
  fa:	90 7f       	andi	r25, 0xF0	; 240
  fc:	98 60       	ori	r25, 0x08	; 8
  fe:	95 bb       	out	0x15, r25	; 21
 100:	ef ec       	ldi	r30, 0xCF	; 207
 102:	f7 e0       	ldi	r31, 0x07	; 7
 104:	31 97       	sbiw	r30, 0x01	; 1
 106:	f1 f7       	brne	.-4      	; 0x104 <write2NibbleCommand_strobe_e+0xc>
 108:	00 c0       	rjmp	.+0      	; 0x10a <write2NibbleCommand_strobe_e+0x12>
 10a:	00 00       	nop
 10c:	95 b3       	in	r25, 0x15	; 21
 10e:	97 7f       	andi	r25, 0xF7	; 247
 110:	95 bb       	out	0x15, r25	; 21
 112:	ef ec       	ldi	r30, 0xCF	; 207
 114:	f7 e0       	ldi	r31, 0x07	; 7
 116:	31 97       	sbiw	r30, 0x01	; 1
 118:	f1 f7       	brne	.-4      	; 0x116 <write2NibbleCommand_strobe_e+0x1e>
 11a:	00 c0       	rjmp	.+0      	; 0x11c <write2NibbleCommand_strobe_e+0x24>
 11c:	00 00       	nop
 11e:	82 95       	swap	r24
 120:	80 7f       	andi	r24, 0xF0	; 240
 122:	88 60       	ori	r24, 0x08	; 8
 124:	85 bb       	out	0x15, r24	; 21
 126:	8f ec       	ldi	r24, 0xCF	; 207
 128:	97 e0       	ldi	r25, 0x07	; 7
 12a:	01 97       	sbiw	r24, 0x01	; 1
 12c:	f1 f7       	brne	.-4      	; 0x12a <write2NibbleCommand_strobe_e+0x32>
 12e:	00 c0       	rjmp	.+0      	; 0x130 <write2NibbleCommand_strobe_e+0x38>
 130:	00 00       	nop
 132:	85 b3       	in	r24, 0x15	; 21
 134:	87 7f       	andi	r24, 0xF7	; 247
 136:	85 bb       	out	0x15, r24	; 21
 138:	ef ec       	ldi	r30, 0xCF	; 207
 13a:	f7 e0       	ldi	r31, 0x07	; 7
 13c:	31 97       	sbiw	r30, 0x01	; 1
 13e:	f1 f7       	brne	.-4      	; 0x13c <write2NibbleCommand_strobe_e+0x44>
 140:	00 c0       	rjmp	.+0      	; 0x142 <write2NibbleCommand_strobe_e+0x4a>
 142:	00 00       	nop
 144:	08 95       	ret

00000146 <write2NibbleData_Strobe_E>:
 146:	98 2f       	mov	r25, r24
 148:	90 7f       	andi	r25, 0xF0	; 240
 14a:	9c 60       	ori	r25, 0x0C	; 12
 14c:	95 bb       	out	0x15, r25	; 21
 14e:	ef ec       	ldi	r30, 0xCF	; 207
 150:	f7 e0       	ldi	r31, 0x07	; 7
 152:	31 97       	sbiw	r30, 0x01	; 1
 154:	f1 f7       	brne	.-4      	; 0x152 <write2NibbleData_Strobe_E+0xc>
 156:	00 c0       	rjmp	.+0      	; 0x158 <write2NibbleData_Strobe_E+0x12>
 158:	00 00       	nop
 15a:	95 b3       	in	r25, 0x15	; 21
 15c:	97 7f       	andi	r25, 0xF7	; 247
 15e:	95 bb       	out	0x15, r25	; 21
 160:	ef ec       	ldi	r30, 0xCF	; 207
 162:	f7 e0       	ldi	r31, 0x07	; 7
 164:	31 97       	sbiw	r30, 0x01	; 1
 166:	f1 f7       	brne	.-4      	; 0x164 <write2NibbleData_Strobe_E+0x1e>
 168:	00 c0       	rjmp	.+0      	; 0x16a <write2NibbleData_Strobe_E+0x24>
 16a:	00 00       	nop
 16c:	82 95       	swap	r24
 16e:	80 7f       	andi	r24, 0xF0	; 240
 170:	8c 60       	ori	r24, 0x0C	; 12
 172:	85 bb       	out	0x15, r24	; 21
 174:	8f ec       	ldi	r24, 0xCF	; 207
 176:	97 e0       	ldi	r25, 0x07	; 7
 178:	01 97       	sbiw	r24, 0x01	; 1
 17a:	f1 f7       	brne	.-4      	; 0x178 <write2NibbleData_Strobe_E+0x32>
 17c:	00 c0       	rjmp	.+0      	; 0x17e <write2NibbleData_Strobe_E+0x38>
 17e:	00 00       	nop
 180:	85 b3       	in	r24, 0x15	; 21
 182:	87 7f       	andi	r24, 0xF7	; 247
 184:	85 bb       	out	0x15, r24	; 21
 186:	ef ec       	ldi	r30, 0xCF	; 207
 188:	f7 e0       	ldi	r31, 0x07	; 7
 18a:	31 97       	sbiw	r30, 0x01	; 1
 18c:	f1 f7       	brne	.-4      	; 0x18a <write2NibbleData_Strobe_E+0x44>
 18e:	00 c0       	rjmp	.+0      	; 0x190 <write2NibbleData_Strobe_E+0x4a>
 190:	00 00       	nop
 192:	08 95       	ret

00000194 <init_4bits_mode>:
 194:	80 e2       	ldi	r24, 0x20	; 32
 196:	9d df       	rcall	.-198    	; 0xd2 <writeInitCommand_strobe_e>
 198:	88 e2       	ldi	r24, 0x28	; 40
 19a:	ae df       	rcall	.-164    	; 0xf8 <write2NibbleCommand_strobe_e>
 19c:	8f e0       	ldi	r24, 0x0F	; 15
 19e:	ac df       	rcall	.-168    	; 0xf8 <write2NibbleCommand_strobe_e>
 1a0:	86 e0       	ldi	r24, 0x06	; 6
 1a2:	aa cf       	rjmp	.-172    	; 0xf8 <write2NibbleCommand_strobe_e>
 1a4:	08 95       	ret

000001a6 <lcd_write_string>:
 1a6:	cf 93       	push	r28
 1a8:	df 93       	push	r29
 1aa:	ec 01       	movw	r28, r24
 1ac:	02 c0       	rjmp	.+4      	; 0x1b2 <lcd_write_string+0xc>
 1ae:	cb df       	rcall	.-106    	; 0x146 <write2NibbleData_Strobe_E>
 1b0:	21 96       	adiw	r28, 0x01	; 1
 1b2:	88 81       	ld	r24, Y
 1b4:	81 11       	cpse	r24, r1
 1b6:	fb cf       	rjmp	.-10     	; 0x1ae <lcd_write_string+0x8>
 1b8:	df 91       	pop	r29
 1ba:	cf 91       	pop	r28
 1bc:	08 95       	ret

000001be <lcd_clear>:

void lcd_clear()
{
	write2NibbleCommand_strobe_e (0x01);
 1be:	81 e0       	ldi	r24, 0x01	; 1
 1c0:	9b cf       	rjmp	.-202    	; 0xf8 <write2NibbleCommand_strobe_e>
 1c2:	08 95       	ret

000001c4 <__vector_12>:
static int on = 1500;
static int off = 2500;

volatile int msCount = 0;

ISR( TIMER1_COMPA_vect ) {
 1c4:	1f 92       	push	r1
 1c6:	0f 92       	push	r0
 1c8:	0f b6       	in	r0, 0x3f	; 63
 1ca:	0f 92       	push	r0
 1cc:	11 24       	eor	r1, r1
 1ce:	0b b6       	in	r0, 0x3b	; 59
 1d0:	0f 92       	push	r0
 1d2:	2f 93       	push	r18
 1d4:	3f 93       	push	r19
 1d6:	4f 93       	push	r20
 1d8:	5f 93       	push	r21
 1da:	6f 93       	push	r22
 1dc:	7f 93       	push	r23
 1de:	8f 93       	push	r24
 1e0:	9f 93       	push	r25
 1e2:	af 93       	push	r26
 1e4:	bf 93       	push	r27
 1e6:	ef 93       	push	r30
 1e8:	ff 93       	push	r31
	writeLedDisplay(msCount);
 1ea:	80 91 06 01 	lds	r24, 0x0106	; 0x800106 <__data_end>
 1ee:	90 91 07 01 	lds	r25, 0x0107	; 0x800107 <__data_end+0x1>
 1f2:	9a d0       	rcall	.+308    	; 0x328 <writeLedDisplay>
	lcd_write_string("e");
 1f4:	80 e0       	ldi	r24, 0x00	; 0
 1f6:	91 e0       	ldi	r25, 0x01	; 1
 1f8:	d6 df       	rcall	.-84     	; 0x1a6 <lcd_write_string>
	msCount++;
 1fa:	80 91 06 01 	lds	r24, 0x0106	; 0x800106 <__data_end>
 1fe:	90 91 07 01 	lds	r25, 0x0107	; 0x800107 <__data_end+0x1>
 202:	01 96       	adiw	r24, 0x01	; 1
 204:	90 93 07 01 	sts	0x0107, r25	; 0x800107 <__data_end+0x1>
 208:	80 93 06 01 	sts	0x0106, r24	; 0x800106 <__data_end>
}
 20c:	ff 91       	pop	r31
 20e:	ef 91       	pop	r30
 210:	bf 91       	pop	r27
 212:	af 91       	pop	r26
 214:	9f 91       	pop	r25
 216:	8f 91       	pop	r24
 218:	7f 91       	pop	r23
 21a:	6f 91       	pop	r22
 21c:	5f 91       	pop	r21
 21e:	4f 91       	pop	r20
 220:	3f 91       	pop	r19
 222:	2f 91       	pop	r18
 224:	0f 90       	pop	r0
 226:	0b be       	out	0x3b, r0	; 59
 228:	0f 90       	pop	r0
 22a:	0f be       	out	0x3f, r0	; 63
 22c:	0f 90       	pop	r0
 22e:	1f 90       	pop	r1
 230:	18 95       	reti

00000232 <main>:

int main(void)
{
	//lcd
	DDRC = 0xFF;
 232:	8f ef       	ldi	r24, 0xFF	; 255
 234:	84 bb       	out	0x14, r24	; 20
	PORTC = 0x00;
 236:	15 ba       	out	0x15, r1	; 21
	
	init_4bits_mode();
 238:	ad df       	rcall	.-166    	; 0x194 <init_4bits_mode>
	lcd_clear();
 23a:	c1 df       	rcall	.-126    	; 0x1be <lcd_clear>
 23c:	82 e0       	ldi	r24, 0x02	; 2
	lcd_write_string("yoo");
 23e:	91 e0       	ldi	r25, 0x01	; 1
 240:	b2 df       	rcall	.-156    	; 0x1a6 <lcd_write_string>
 242:	81 e0       	ldi	r24, 0x01	; 1
	
	//spi
	// inilialize
	DDRB=0x01;					  	// Set PB0 pin as output for display select
 244:	87 bb       	out	0x17, r24	; 23
	spi_masterInit();              	// Initialize spi module
 246:	2e d0       	rcall	.+92     	; 0x2a4 <spi_masterInit>
 248:	62 d0       	rcall	.+196    	; 0x30e <displayDriverInit>
	displayDriverInit();            // Initialize display chip
 24a:	c1 e0       	ldi	r28, 0x01	; 1
	// clear display (all zero's)
	for (char i =1; i<=4; i++)
 24c:	09 c0       	rjmp	.+18     	; 0x260 <main+0x2e>
	{
		spi_slaveSelect(0); 		// Select display chip
 24e:	80 e0       	ldi	r24, 0x00	; 0
 250:	38 d0       	rcall	.+112    	; 0x2c2 <spi_slaveSelect>
		spi_write(i);  				// 	digit adress: (digit place)
 252:	8c 2f       	mov	r24, r28
 254:	32 d0       	rcall	.+100    	; 0x2ba <spi_write>
 256:	80 e0       	ldi	r24, 0x00	; 0
		spi_write(0);				// 	digit value: 0
 258:	30 d0       	rcall	.+96     	; 0x2ba <spi_write>
 25a:	80 e0       	ldi	r24, 0x00	; 0
		spi_slaveDeSelect(0);		// Deselect display chip
 25c:	3e d0       	rcall	.+124    	; 0x2da <spi_slaveDeSelect>
 25e:	cf 5f       	subi	r28, 0xFF	; 255
 260:	c5 30       	cpi	r28, 0x05	; 5
	// inilialize
	DDRB=0x01;					  	// Set PB0 pin as output for display select
	spi_masterInit();              	// Initialize spi module
	displayDriverInit();            // Initialize display chip
	// clear display (all zero's)
	for (char i =1; i<=4; i++)
 262:	a8 f3       	brcs	.-22     	; 0x24e <main+0x1c>
 264:	b8 d0       	rcall	.+368    	; 0x3d6 <timer_init>
		spi_slaveDeSelect(0);		// Deselect display chip
	}
	
	//timer
	//DDRD = 0xFF;
	timer_init();
 266:	10 92 61 00 	sts	0x0061, r1	; 0x800061 <__TEXT_REGION_LENGTH__+0x7e0061>
	
	
	//adc
	DDRF = 0x00;				// set PORTF for input (ADC)
 26a:	8f ef       	ldi	r24, 0xFF	; 255
 26c:	8a bb       	out	0x1a, r24	; 26
	DDRA = 0xFF;				// set PORTA for output
 26e:	80 93 64 00 	sts	0x0064, r24	; 0x800064 <__TEXT_REGION_LENGTH__+0x7e0064>
	DDRG = 0xFF;				// set PORTG for output
 272:	2a df       	rcall	.-428    	; 0xc8 <adc_init>
	adc_init();
 274:	84 b1       	in	r24, 0x04	; 4
 276:	8b bb       	out	0x1b, r24	; 27
	
	
    while (1) 
    {
		PORTA = ADCL;			// Show MSB/LSB (bit 10:0) of ADC
 278:	85 b1       	in	r24, 0x05	; 5
 27a:	80 93 65 00 	sts	0x0065, r24	; 0x800065 <__TEXT_REGION_LENGTH__+0x7e0065>
		PORTG = ADCH;
 27e:	84 e6       	ldi	r24, 0x64	; 100
 280:	90 e0       	ldi	r25, 0x00	; 0
		wait(100);
 282:	01 d0       	rcall	.+2      	; 0x286 <wait>
 284:	f7 cf       	rjmp	.-18     	; 0x274 <main+0x42>

00000286 <wait>:
 286:	20 e0       	ldi	r18, 0x00	; 0
 288:	30 e0       	ldi	r19, 0x00	; 0
 28a:	08 c0       	rjmp	.+16     	; 0x29c <wait+0x16>
void displayOff() 
{
  	spi_slaveSelect(0);				// Select display chip
  	spi_write(0x0C); 				// Register 0B: Shutdown register
  	spi_write(0x00); 				// 	-> 1 = Normal operation
  	spi_slaveDeSelect(0);			// Deselect display chip
 28c:	ef ec       	ldi	r30, 0xCF	; 207
 28e:	f7 e0       	ldi	r31, 0x07	; 7
 290:	31 97       	sbiw	r30, 0x01	; 1
 292:	f1 f7       	brne	.-4      	; 0x290 <wait+0xa>
 294:	00 c0       	rjmp	.+0      	; 0x296 <wait+0x10>
 296:	00 00       	nop
 298:	2f 5f       	subi	r18, 0xFF	; 255
 29a:	3f 4f       	sbci	r19, 0xFF	; 255
 29c:	28 17       	cp	r18, r24
 29e:	39 07       	cpc	r19, r25
 2a0:	ac f3       	brlt	.-22     	; 0x28c <wait+0x6>
 2a2:	08 95       	ret

000002a4 <spi_masterInit>:
 2a4:	8f ef       	ldi	r24, 0xFF	; 255
 2a6:	87 bb       	out	0x17, r24	; 23
 2a8:	87 b3       	in	r24, 0x17	; 23
 2aa:	87 7f       	andi	r24, 0xF7	; 247
 2ac:	87 bb       	out	0x17, r24	; 23
 2ae:	88 b3       	in	r24, 0x18	; 24
 2b0:	81 60       	ori	r24, 0x01	; 1
 2b2:	88 bb       	out	0x18, r24	; 24
 2b4:	82 e5       	ldi	r24, 0x52	; 82
 2b6:	8d b9       	out	0x0d, r24	; 13
 2b8:	08 95       	ret

000002ba <spi_write>:
 2ba:	8f b9       	out	0x0f, r24	; 15
 2bc:	77 9b       	sbis	0x0e, 7	; 14
 2be:	fe cf       	rjmp	.-4      	; 0x2bc <spi_write+0x2>
 2c0:	08 95       	ret

000002c2 <spi_slaveSelect>:
 2c2:	98 b3       	in	r25, 0x18	; 24
 2c4:	21 e0       	ldi	r18, 0x01	; 1
 2c6:	30 e0       	ldi	r19, 0x00	; 0
 2c8:	02 c0       	rjmp	.+4      	; 0x2ce <spi_slaveSelect+0xc>
 2ca:	22 0f       	add	r18, r18
 2cc:	33 1f       	adc	r19, r19
 2ce:	8a 95       	dec	r24
 2d0:	e2 f7       	brpl	.-8      	; 0x2ca <spi_slaveSelect+0x8>
 2d2:	20 95       	com	r18
 2d4:	29 23       	and	r18, r25
 2d6:	28 bb       	out	0x18, r18	; 24
 2d8:	08 95       	ret

000002da <spi_slaveDeSelect>:
 2da:	98 b3       	in	r25, 0x18	; 24
 2dc:	21 e0       	ldi	r18, 0x01	; 1
 2de:	30 e0       	ldi	r19, 0x00	; 0
 2e0:	02 c0       	rjmp	.+4      	; 0x2e6 <spi_slaveDeSelect+0xc>
 2e2:	22 0f       	add	r18, r18
 2e4:	33 1f       	adc	r19, r19
 2e6:	8a 95       	dec	r24
 2e8:	e2 f7       	brpl	.-8      	; 0x2e2 <spi_slaveDeSelect+0x8>
 2ea:	29 2b       	or	r18, r25
 2ec:	28 bb       	out	0x18, r18	; 24
 2ee:	08 95       	ret

000002f0 <spi_writeWord>:
 2f0:	cf 93       	push	r28
 2f2:	df 93       	push	r29
 2f4:	d8 2f       	mov	r29, r24
 2f6:	c6 2f       	mov	r28, r22
 2f8:	80 e0       	ldi	r24, 0x00	; 0
 2fa:	e3 df       	rcall	.-58     	; 0x2c2 <spi_slaveSelect>
 2fc:	8d 2f       	mov	r24, r29
 2fe:	dd df       	rcall	.-70     	; 0x2ba <spi_write>
 300:	8c 2f       	mov	r24, r28
 302:	db df       	rcall	.-74     	; 0x2ba <spi_write>
 304:	80 e0       	ldi	r24, 0x00	; 0
 306:	e9 df       	rcall	.-46     	; 0x2da <spi_slaveDeSelect>
 308:	df 91       	pop	r29
 30a:	cf 91       	pop	r28
 30c:	08 95       	ret

0000030e <displayDriverInit>:
 30e:	6f ef       	ldi	r22, 0xFF	; 255
 310:	89 e0       	ldi	r24, 0x09	; 9
 312:	ee df       	rcall	.-36     	; 0x2f0 <spi_writeWord>
 314:	64 e0       	ldi	r22, 0x04	; 4
 316:	8a e0       	ldi	r24, 0x0A	; 10
 318:	eb df       	rcall	.-42     	; 0x2f0 <spi_writeWord>
 31a:	63 e0       	ldi	r22, 0x03	; 3
 31c:	8b e0       	ldi	r24, 0x0B	; 11
 31e:	e8 df       	rcall	.-48     	; 0x2f0 <spi_writeWord>
 320:	61 e0       	ldi	r22, 0x01	; 1
 322:	8c e0       	ldi	r24, 0x0C	; 12
 324:	e5 cf       	rjmp	.-54     	; 0x2f0 <spi_writeWord>
 326:	08 95       	ret

00000328 <writeLedDisplay>:
}
void writeLedDisplay( int value ) {
 328:	cf 92       	push	r12
 32a:	df 92       	push	r13
 32c:	ef 92       	push	r14
 32e:	ff 92       	push	r15
 330:	0f 93       	push	r16
 332:	1f 93       	push	r17
 334:	cf 93       	push	r28
 336:	df 93       	push	r29
	int min_pos = -1;
	int pos_value = value;
	if(value < 0) {
 338:	99 23       	and	r25, r25
 33a:	4c f4       	brge	.+18     	; 0x34e <writeLedDisplay+0x26>
		pos_value *= -1;
 33c:	ee 24       	eor	r14, r14
 33e:	ff 24       	eor	r15, r15
 340:	e8 1a       	sub	r14, r24
 342:	f9 0a       	sbc	r15, r25
		min_pos = 4;
 344:	68 94       	set
 346:	cc 24       	eor	r12, r12
 348:	c2 f8       	bld	r12, 2
 34a:	d1 2c       	mov	r13, r1
 34c:	04 c0       	rjmp	.+8      	; 0x356 <writeLedDisplay+0x2e>
  	spi_write(0x00); 				// 	-> 1 = Normal operation
  	spi_slaveDeSelect(0);			// Deselect display chip
}
void writeLedDisplay( int value ) {
	int min_pos = -1;
	int pos_value = value;
 34e:	7c 01       	movw	r14, r24
  	spi_write(0x0C); 				// Register 0B: Shutdown register
  	spi_write(0x00); 				// 	-> 1 = Normal operation
  	spi_slaveDeSelect(0);			// Deselect display chip
}
void writeLedDisplay( int value ) {
	int min_pos = -1;
 350:	cc 24       	eor	r12, r12
 352:	ca 94       	dec	r12
 354:	dc 2c       	mov	r13, r12
	if(value < 0) {
		pos_value *= -1;
		min_pos = 4;
	}
	
	if((value > -10) && (value < 0)){
 356:	9c 01       	movw	r18, r24
 358:	27 5f       	subi	r18, 0xF7	; 247
 35a:	3f 4f       	sbci	r19, 0xFF	; 255
 35c:	29 30       	cpi	r18, 0x09	; 9
 35e:	31 05       	cpc	r19, r1
 360:	30 f0       	brcs	.+12     	; 0x36e <writeLedDisplay+0x46>
		min_pos = 2;
	} else if((value > -100) && (value < 0)){
 362:	8d 59       	subi	r24, 0x9D	; 157
 364:	9f 4f       	sbci	r25, 0xFF	; 255
 366:	83 36       	cpi	r24, 0x63	; 99
 368:	91 05       	cpc	r25, r1
 36a:	30 f0       	brcs	.+12     	; 0x378 <writeLedDisplay+0x50>
 36c:	0a c0       	rjmp	.+20     	; 0x382 <writeLedDisplay+0x5a>
		pos_value *= -1;
		min_pos = 4;
	}
	
	if((value > -10) && (value < 0)){
		min_pos = 2;
 36e:	68 94       	set
 370:	cc 24       	eor	r12, r12
 372:	c1 f8       	bld	r12, 1
 374:	d1 2c       	mov	r13, r1
 376:	05 c0       	rjmp	.+10     	; 0x382 <writeLedDisplay+0x5a>
	} else if((value > -100) && (value < 0)){
		min_pos = 3;
 378:	0f 2e       	mov	r0, r31
 37a:	f3 e0       	ldi	r31, 0x03	; 3
 37c:	cf 2e       	mov	r12, r31
 37e:	d1 2c       	mov	r13, r1
 380:	f0 2d       	mov	r31, r0
	}
	
	int i,divisor = 10000;
 382:	00 e1       	ldi	r16, 0x10	; 16
 384:	17 e2       	ldi	r17, 0x27	; 39
	int digit = 0;
    for (i = 5; i > 0; i--) {
 386:	c5 e0       	ldi	r28, 0x05	; 5
 388:	d0 e0       	ldi	r29, 0x00	; 0
 38a:	11 c0       	rjmp	.+34     	; 0x3ae <writeLedDisplay+0x86>
        digit = pos_value / divisor;
        pos_value %= divisor;
 38c:	c7 01       	movw	r24, r14
 38e:	b8 01       	movw	r22, r16
 390:	2e d0       	rcall	.+92     	; 0x3ee <__divmodhi4>
 392:	26 2f       	mov	r18, r22
 394:	7c 01       	movw	r14, r24
        divisor /= 10;
 396:	c8 01       	movw	r24, r16
 398:	6a e0       	ldi	r22, 0x0A	; 10
 39a:	70 e0       	ldi	r23, 0x00	; 0
 39c:	28 d0       	rcall	.+80     	; 0x3ee <__divmodhi4>
 39e:	8b 01       	movw	r16, r22
		spi_writeWord(i, digit);
 3a0:	62 2f       	mov	r22, r18
 3a2:	8c 2f       	mov	r24, r28
 3a4:	a5 df       	rcall	.-182    	; 0x2f0 <spi_writeWord>
		wait(10);
 3a6:	8a e0       	ldi	r24, 0x0A	; 10
 3a8:	90 e0       	ldi	r25, 0x00	; 0
 3aa:	6d df       	rcall	.-294    	; 0x286 <wait>
 3ac:	21 97       	sbiw	r28, 0x01	; 1
		min_pos = 3;
	}
	
	int i,divisor = 10000;
	int digit = 0;
    for (i = 5; i > 0; i--) {
 3ae:	1c 16       	cp	r1, r28
 3b0:	1d 06       	cpc	r1, r29
 3b2:	64 f3       	brlt	.-40     	; 0x38c <writeLedDisplay+0x64>
 3b4:	dd 20       	and	r13, r13
        pos_value %= divisor;
        divisor /= 10;
		spi_writeWord(i, digit);
		wait(10);
    }
	if(min_pos>-1){
 3b6:	1c f0       	brlt	.+6      	; 0x3be <writeLedDisplay+0x96>
		spi_writeWord(min_pos, 10);
 3b8:	6a e0       	ldi	r22, 0x0A	; 10
 3ba:	8c 2d       	mov	r24, r12
 3bc:	99 df       	rcall	.-206    	; 0x2f0 <spi_writeWord>
	}
	wait(1000);
 3be:	88 ee       	ldi	r24, 0xE8	; 232
 3c0:	93 e0       	ldi	r25, 0x03	; 3
 3c2:	61 df       	rcall	.-318    	; 0x286 <wait>
 3c4:	df 91       	pop	r29
	
}
 3c6:	cf 91       	pop	r28
 3c8:	1f 91       	pop	r17
 3ca:	0f 91       	pop	r16
 3cc:	ff 90       	pop	r15
 3ce:	ef 90       	pop	r14
 3d0:	df 90       	pop	r13
 3d2:	cf 90       	pop	r12
 3d4:	08 95       	ret

000003d6 <timer_init>:
#include <avr/interrupt.h>

//Timer1 Prescaler = 256; Preload = 31249; Actual Interrupt Time = 1
 
void timer_init(){
	OCR1A = 31250; // 16-bits compare value of counter 1
 3d6:	82 e1       	ldi	r24, 0x12	; 18
 3d8:	9a e7       	ldi	r25, 0x7A	; 122
 3da:	9b bd       	out	0x2b, r25	; 43
 3dc:	8a bd       	out	0x2a, r24	; 42
	TCCR1A = 0b00000000;
 3de:	1f bc       	out	0x2f, r1	; 47
	TCCR1B = 0b00001100; // // Initialize T1: timer, prescaler = 256, compare output disconnected, CTC, RUN
 3e0:	8c e0       	ldi	r24, 0x0C	; 12
 3e2:	8e bd       	out	0x2e, r24	; 46
	TIMSK |= (1<<4); // T1 compare match A interrupt enable
 3e4:	87 b7       	in	r24, 0x37	; 55
 3e6:	80 61       	ori	r24, 0x10	; 16
 3e8:	87 bf       	out	0x37, r24	; 55
	sei();
 3ea:	78 94       	sei
 3ec:	08 95       	ret

000003ee <__divmodhi4>:
 3ee:	97 fb       	bst	r25, 7
 3f0:	07 2e       	mov	r0, r23
 3f2:	16 f4       	brtc	.+4      	; 0x3f8 <__divmodhi4+0xa>
 3f4:	00 94       	com	r0
 3f6:	06 d0       	rcall	.+12     	; 0x404 <__divmodhi4_neg1>
 3f8:	77 fd       	sbrc	r23, 7
 3fa:	08 d0       	rcall	.+16     	; 0x40c <__divmodhi4_neg2>
 3fc:	0b d0       	rcall	.+22     	; 0x414 <__udivmodhi4>
 3fe:	07 fc       	sbrc	r0, 7
 400:	05 d0       	rcall	.+10     	; 0x40c <__divmodhi4_neg2>
 402:	3e f4       	brtc	.+14     	; 0x412 <__divmodhi4_exit>

00000404 <__divmodhi4_neg1>:
 404:	90 95       	com	r25
 406:	81 95       	neg	r24
 408:	9f 4f       	sbci	r25, 0xFF	; 255
 40a:	08 95       	ret

0000040c <__divmodhi4_neg2>:
 40c:	70 95       	com	r23
 40e:	61 95       	neg	r22
 410:	7f 4f       	sbci	r23, 0xFF	; 255

00000412 <__divmodhi4_exit>:
 412:	08 95       	ret

00000414 <__udivmodhi4>:
 414:	aa 1b       	sub	r26, r26
 416:	bb 1b       	sub	r27, r27
 418:	51 e1       	ldi	r21, 0x11	; 17
 41a:	07 c0       	rjmp	.+14     	; 0x42a <__udivmodhi4_ep>

0000041c <__udivmodhi4_loop>:
 41c:	aa 1f       	adc	r26, r26
 41e:	bb 1f       	adc	r27, r27
 420:	a6 17       	cp	r26, r22
 422:	b7 07       	cpc	r27, r23
 424:	10 f0       	brcs	.+4      	; 0x42a <__udivmodhi4_ep>
 426:	a6 1b       	sub	r26, r22
 428:	b7 0b       	sbc	r27, r23

0000042a <__udivmodhi4_ep>:
 42a:	88 1f       	adc	r24, r24
 42c:	99 1f       	adc	r25, r25
 42e:	5a 95       	dec	r21
 430:	a9 f7       	brne	.-22     	; 0x41c <__udivmodhi4_loop>
 432:	80 95       	com	r24
 434:	90 95       	com	r25
 436:	bc 01       	movw	r22, r24
 438:	cd 01       	movw	r24, r26
 43a:	08 95       	ret

0000043c <_exit>:
 43c:	f8 94       	cli

0000043e <__stop_program>:
 43e:	ff cf       	rjmp	.-2      	; 0x43e <__stop_program>
